target datalayout = "e-m:e-p270:32:32-p271:32:32-p272:64:64-i64:64-i128:128-f80:128-n8:16:32:64-S128"
target triple = "x86_64-pc-linux-gnu"

%"struct.vcpkg::StringView" = type { ptr, i64 }
%"class.std::__cxx11::basic_string" = type { %"struct.std::__cxx11::basic_string<char>::_Alloc_hider", i64, %union.anon.2 }
%"struct.std::__cxx11::basic_string<char>::_Alloc_hider" = type { ptr }
%union.anon.2 = type { i64, [8 x i8] }
%"struct.vcpkg::Optional" = type { %"struct.vcpkg::details::OptionalStorage" }
%"struct.vcpkg::details::OptionalStorage" = type { i8, %union.anon.20 }
%union.anon.20 = type { %"class.std::__cxx11::basic_string" }

; Function Attrs: mustprogress nounwind uwtable
define linkonce_odr dso_local void @_ZN5vcpkg7details15OptionalStorageINSt7__cxx1112basic_stringIcSt11char_traitsIcESaIcEEELb1EEC2EOS7_(ptr noundef nonnull align 8 dereferenceable(40) %0, ptr noundef nonnull align 8 dereferenceable(32) %1) unnamed_addr #0 comdat align 2 {
  %3 = alloca ptr, align 8
  %4 = alloca ptr, align 8
  store ptr %0, ptr %3, align 8
  store ptr %1, ptr %4, align 8
  %5 = load ptr, ptr %3, align 8
  %6 = getelementptr inbounds %"struct.vcpkg::details::OptionalStorage", ptr %5, i32 0, i32 0
  store i8 1, ptr %6, align 8
  %7 = getelementptr inbounds %"struct.vcpkg::details::OptionalStorage", ptr %5, i32 0, i32 1
  %8 = load ptr, ptr %4, align 8
  call void @_ZNSt7__cxx1112basic_stringIcSt11char_traitsIcESaIcEEC1EOS4_(ptr noundef nonnull align 8 dereferenceable(32) %7, ptr noundef nonnull align 8 dereferenceable(32) %8) #9
  ret void
}

; Function Attrs: mustprogress nounwind uwtable
define linkonce_odr dso_local void @_ZN5vcpkg8OptionalINSt7__cxx1112basic_stringIcSt11char_traitsIcESaIcEEEEC2IS6_TnNSt9enable_ifIXaantsr3stdE9is_same_vINSt5decayIT_E4typeES7_Esr3stdE18is_constructible_vINS_7details15OptionalStorageIS6_Lb1EEESB_EEiE4typeELi0EEEOSB_(ptr noundef nonnull align 8 dereferenceable(40) %0, ptr noundef nonnull align 8 dereferenceable(32) %1) unnamed_addr #0 comdat align 2 {
  %3 = alloca ptr, align 8
  %4 = alloca ptr, align 8
  store ptr %0, ptr %3, align 8
  store ptr %1, ptr %4, align 8
  %5 = load ptr, ptr %3, align 8
  %6 = load ptr, ptr %4, align 8
  call void @_ZN5vcpkg7details15OptionalStorageINSt7__cxx1112basic_stringIcSt11char_traitsIcESaIcEEELb1EEC2EOS7_(ptr noundef nonnull align 8 dereferenceable(40) %5, ptr noundef nonnull align 8 dereferenceable(32) %6) #9
  ret void
}

; Function Attrs: mustprogress uwtable
define dso_local void @_ZNK5vcpkg4Json18StringDeserializer12visit_stringB5cxx11ERNS0_6ReaderENS_10StringViewE(ptr dead_on_unwind noalias writable sret(%"struct.vcpkg::Optional") align 8 %0, ptr noundef nonnull align 8 dereferenceable(8) %1, ptr noundef nonnull align 8 dereferenceable(120) %2, ptr %3, i64 %4) unnamed_addr #4 align 2 {
  %6 = alloca ptr, align 8
  %7 = alloca %"struct.vcpkg::StringView", align 8
  %8 = alloca ptr, align 8
  %9 = alloca ptr, align 8
  %10 = alloca %"class.std::__cxx11::basic_string", align 8
  store ptr %0, ptr %6, align 8
  %11 = getelementptr inbounds { ptr, i64 }, ptr %7, i32 0, i32 0
  store ptr %3, ptr %11, align 8
  %12 = getelementptr inbounds { ptr, i64 }, ptr %7, i32 0, i32 1
  store i64 %4, ptr %12, align 8
  store ptr %1, ptr %8, align 8
  store ptr %2, ptr %9, align 8
  call void @_ZNK5vcpkg10StringView9to_stringB5cxx11Ev(ptr dead_on_unwind writable sret(%"class.std::__cxx11::basic_string") align 8 %10, ptr noundef nonnull align 8 dereferenceable(16) %7)
  call void @_ZN5vcpkg8OptionalINSt7__cxx1112basic_stringIcSt11char_traitsIcESaIcEEEEC2IS6_TnNSt9enable_ifIXaantsr3stdE9is_same_vINSt5decayIT_E4typeES7_Esr3stdE18is_constructible_vINS_7details15OptionalStorageIS6_Lb1EEESB_EEiE4typeELi0EEEOSB_(ptr noundef nonnull align 8 dereferenceable(40) %0, ptr noundef nonnull align 8 dereferenceable(32) %10) #9
  call void @_ZNSt7__cxx1112basic_stringIcSt11char_traitsIcESaIcEED1Ev(ptr noundef nonnull align 8 dereferenceable(32) %10) #9
  ret void
}