; Function Attrs: mustprogress uwtable
define dso_local void @_ZNK5vcpkg4Json18StringDeserializer12visit_stringB5cxx11ERNS0_6ReaderENS_10StringViewE(ptr dead_on_unwind noalias writable sret(%"struct.vcpkg::Optional") align 8 %0, ptr nocapture nonnull readnone align 8 %1, ptr nocapture nonnull readnone align 8 %2, ptr %3, i64 %4) unnamed_addr #8 align 2 {
  %6 = alloca %"struct.vcpkg::StringView", align 8
  %7 = alloca %"class.std::__cxx11::basic_string", align 8
  store ptr %3, ptr %6, align 8
  %8 = getelementptr inbounds i8, ptr %6, i64 8
  store i64 %4, ptr %8, align 8
  call void @_ZNK5vcpkg10StringView9to_stringB5cxx11Ev(ptr dead_on_unwind nonnull writable sret(%"class.std::__cxx11::basic_string") align 8 %7, ptr noundef nonnull align 8 dereferenceable(16) %6)
  store i8 1, ptr %0, align 8
  %9 = getelementptr inbounds i8, ptr %0, i64 8
  call void @_ZNSt7__cxx1112basic_stringIcSt11char_traitsIcESaIcEEC1EOS4_(ptr noundef nonnull align 8 dereferenceable(32) %9, ptr noundef nonnull align 8 dereferenceable(32) %7) #26
  call void @_ZNSt7__cxx1112basic_stringIcSt11char_traitsIcESaIcEED1Ev(ptr noundef nonnull align 8 dereferenceable(32) %7) #26
  ret void
}